target datalayout = "e-m:e-p270:32:32-p271:32:32-p272:64:64-i64:64-i128:128-f80:128-n8:16:32:64-S128"
target triple = "x86_64-pc-linux-gnu"

%struct._generic_N_Vector = type { ptr, ptr, ptr }
%struct._N_VectorContent_Serial = type { i64, i32, ptr }

; Function Attrs: nounwind uwtable
define void @N_VConst_Serial(double noundef %0, ptr noundef %1) #0 {
  %3 = alloca double, align 8
  %4 = alloca ptr, align 8
  %5 = alloca i64, align 8
  %6 = alloca i64, align 8
  %7 = alloca ptr, align 8
  store double %0, ptr %3, align 8, !tbaa !72
  store ptr %1, ptr %4, align 8, !tbaa !10
  call void @llvm.lifetime.start.p0(i64 8, ptr %5) #6
  call void @llvm.lifetime.start.p0(i64 8, ptr %6) #6
  call void @llvm.lifetime.start.p0(i64 8, ptr %7) #6
  store ptr null, ptr %7, align 8, !tbaa !69
  %8 = load ptr, ptr %4, align 8, !tbaa !10
  %9 = getelementptr inbounds nuw %struct._generic_N_Vector, ptr %8, i32 0, i32 0
  %10 = load ptr, ptr %9, align 8, !tbaa !61
  %11 = getelementptr inbounds nuw %struct._N_VectorContent_Serial, ptr %10, i32 0, i32 0
  %12 = load i64, ptr %11, align 8, !tbaa !62
  store i64 %12, ptr %6, align 8, !tbaa !3
  %13 = load ptr, ptr %4, align 8, !tbaa !10
  %14 = getelementptr inbounds nuw %struct._generic_N_Vector, ptr %13, i32 0, i32 0
  %15 = load ptr, ptr %14, align 8, !tbaa !61
  %16 = getelementptr inbounds nuw %struct._N_VectorContent_Serial, ptr %15, i32 0, i32 2
  %17 = load ptr, ptr %16, align 8, !tbaa !67
  store ptr %17, ptr %7, align 8, !tbaa !69
  store i64 0, ptr %5, align 8, !tbaa !3
  br label %18

18:                                               ; preds = %27, %2
  %19 = load i64, ptr %5, align 8, !tbaa !3
  %20 = load i64, ptr %6, align 8, !tbaa !3
  %21 = icmp slt i64 %19, %20
  br i1 %21, label %22, label %30

22:                                               ; preds = %18
  %23 = load double, ptr %3, align 8, !tbaa !72
  %24 = load ptr, ptr %7, align 8, !tbaa !69
  %25 = load i64, ptr %5, align 8, !tbaa !3
  %26 = getelementptr inbounds double, ptr %24, i64 %25
  store double %23, ptr %26, align 8, !tbaa !72
  br label %27

27:                                               ; preds = %22
  %28 = load i64, ptr %5, align 8, !tbaa !3
  %29 = add nsw i64 %28, 1
  store i64 %29, ptr %5, align 8, !tbaa !3
  br label %18

30:                                               ; preds = %18
  call void @llvm.lifetime.end.p0(i64 8, ptr %7) #6
  call void @llvm.lifetime.end.p0(i64 8, ptr %6) #6
  call void @llvm.lifetime.end.p0(i64 8, ptr %5) #6
  ret void
}

; Function Attrs: nounwind uwtable
define i32 @N_VConstVectorArray_Serial(i32 noundef %0, double noundef %1, ptr noundef %2) #0 {
  %4 = alloca i32, align 4
  %5 = alloca i32, align 4
  %6 = alloca double, align 8
  %7 = alloca ptr, align 8
  %8 = alloca ptr, align 8
  %9 = alloca i32, align 4
  %10 = alloca i64, align 8
  %11 = alloca i64, align 8
  %12 = alloca ptr, align 8
  %13 = alloca i32, align 4
  store i32 %0, ptr %5, align 4, !tbaa !74
  store double %1, ptr %6, align 8, !tbaa !72
  store ptr %2, ptr %7, align 8, !tbaa !75
  call void @llvm.lifetime.start.p0(i64 8, ptr %8) #6
  %14 = load ptr, ptr %7, align 8, !tbaa !75
  %15 = getelementptr inbounds ptr, ptr %14, i64 0
  %16 = load ptr, ptr %15, align 8, !tbaa !10
  %17 = getelementptr inbounds nuw %struct._generic_N_Vector, ptr %16, i32 0, i32 2
  %18 = load ptr, ptr %17, align 8, !tbaa !68
  store ptr %18, ptr %8, align 8, !tbaa !7
  call void @llvm.lifetime.start.p0(i64 4, ptr %9) #6
  call void @llvm.lifetime.start.p0(i64 8, ptr %10) #6
  call void @llvm.lifetime.start.p0(i64 8, ptr %11) #6
  call void @llvm.lifetime.start.p0(i64 8, ptr %12) #6
  store ptr null, ptr %12, align 8, !tbaa !69
  %19 = load i32, ptr %5, align 4, !tbaa !74
  %20 = icmp eq i32 %19, 1
  br i1 %20, label %21, label %26

21:                                               ; preds = %3
  %22 = load double, ptr %6, align 8, !tbaa !72
  %23 = load ptr, ptr %7, align 8, !tbaa !75
  %24 = getelementptr inbounds ptr, ptr %23, i64 0
  %25 = load ptr, ptr %24, align 8, !tbaa !10
  call void @N_VConst_Serial(double noundef %22, ptr noundef %25)
  store i32 0, ptr %4, align 4
  store i32 1, ptr %13, align 4
  br label %65

26:                                               ; preds = %3
  %27 = load ptr, ptr %7, align 8, !tbaa !75
  %28 = getelementptr inbounds ptr, ptr %27, i64 0
  %29 = load ptr, ptr %28, align 8, !tbaa !10
  %30 = getelementptr inbounds nuw %struct._generic_N_Vector, ptr %29, i32 0, i32 0
  %31 = load ptr, ptr %30, align 8, !tbaa !61
  %32 = getelementptr inbounds nuw %struct._N_VectorContent_Serial, ptr %31, i32 0, i32 0
  %33 = load i64, ptr %32, align 8, !tbaa !62
  store i64 %33, ptr %11, align 8, !tbaa !3
  store i32 0, ptr %9, align 4, !tbaa !74
  br label %34

34:                                               ; preds = %61, %26
  %35 = load i32, ptr %9, align 4, !tbaa !74
  %36 = load i32, ptr %5, align 4, !tbaa !74
  %37 = icmp slt i32 %35, %36
  br i1 %37, label %38, label %64

38:                                               ; preds = %34
  %39 = load ptr, ptr %7, align 8, !tbaa !75
  %40 = load i32, ptr %9, align 4, !tbaa !74
  %41 = sext i32 %40 to i64
  %42 = getelementptr inbounds ptr, ptr %39, i64 %41
  %43 = load ptr, ptr %42, align 8, !tbaa !10
  %44 = getelementptr inbounds nuw %struct._generic_N_Vector, ptr %43, i32 0, i32 0
  %45 = load ptr, ptr %44, align 8, !tbaa !61
  %46 = getelementptr inbounds nuw %struct._N_VectorContent_Serial, ptr %45, i32 0, i32 2
  %47 = load ptr, ptr %46, align 8, !tbaa !67
  store ptr %47, ptr %12, align 8, !tbaa !69
  store i64 0, ptr %10, align 8, !tbaa !3
  br label %48

48:                                               ; preds = %57, %38
  %49 = load i64, ptr %10, align 8, !tbaa !3
  %50 = load i64, ptr %11, align 8, !tbaa !3
  %51 = icmp slt i64 %49, %50
  br i1 %51, label %52, label %60

52:                                               ; preds = %48
  %53 = load double, ptr %6, align 8, !tbaa !72
  %54 = load ptr, ptr %12, align 8, !tbaa !69
  %55 = load i64, ptr %10, align 8, !tbaa !3
  %56 = getelementptr inbounds double, ptr %54, i64 %55
  store double %53, ptr %56, align 8, !tbaa !72
  br label %57

57:                                               ; preds = %52
  %58 = load i64, ptr %10, align 8, !tbaa !3
  %59 = add nsw i64 %58, 1
  store i64 %59, ptr %10, align 8, !tbaa !3
  br label %48

60:                                               ; preds = %48
  br label %61

61:                                               ; preds = %60
  %62 = load i32, ptr %9, align 4, !tbaa !74
  %63 = add nsw i32 %62, 1
  store i32 %63, ptr %9, align 4, !tbaa !74
  br label %34

64:                                               ; preds = %34
  store i32 0, ptr %4, align 4
  store i32 1, ptr %13, align 4
  br label %65

65:                                               ; preds = %64, %21
  call void @llvm.lifetime.end.p0(i64 8, ptr %12) #6
  call void @llvm.lifetime.end.p0(i64 8, ptr %11) #6
  call void @llvm.lifetime.end.p0(i64 8, ptr %10) #6
  call void @llvm.lifetime.end.p0(i64 4, ptr %9) #6
  call void @llvm.lifetime.end.p0(i64 8, ptr %8) #6
  %66 = load i32, ptr %4, align 4
  ret i32 %66
}