; Function Attrs: nofree norecurse nosync nounwind memory(readwrite, inaccessiblemem: none) uwtable
define noundef i32 @N_VConstVectorArray_Serial(i32 noundef %0, double noundef %1, ptr noundef readonly captures(none) %2) #7 {
  %4 = load ptr, ptr %2, align 8, !tbaa !67
  %5 = icmp eq i32 %0, 1
  %6 = load ptr, ptr %4, align 8, !tbaa !54
  %7 = load i64, ptr %6, align 8, !tbaa !55
  br i1 %5, label %8, label %14

8:                                                ; preds = %3
  %9 = getelementptr inbounds nuw i8, ptr %6, i64 16
  %10 = load ptr, ptr %9, align 8, !tbaa !61
  %11 = icmp sgt i64 %7, 0
  br i1 %11, label %.lr.ph.i, label %N_VConst_Serial.exit

.lr.ph.i:                                         ; preds = %8, %.lr.ph.i
  %.07.i = phi i64 [ %13, %.lr.ph.i ], [ 0, %8 ]
  %12 = getelementptr inbounds nuw double, ptr %10, i64 %.07.i
  store double %1, ptr %12, align 8, !tbaa !64
  %13 = add nuw nsw i64 %.07.i, 1
  %exitcond.not.i = icmp eq i64 %13, %7
  br i1 %exitcond.not.i, label %N_VConst_Serial.exit, label %.lr.ph.i

14:                                               ; preds = %3
  %15 = icmp sgt i32 %0, 0
  %16 = icmp sgt i64 %7, 0
  %or.cond = select i1 %15, i1 %16, i1 false
  br i1 %or.cond, label %.lr.ph.us.preheader, label %N_VConst_Serial.exit

.lr.ph.us.preheader:                              ; preds = %14
  %wide.trip.count = zext nneg i32 %0 to i64
  br label %.lr.ph.us

.lr.ph.us:                                        ; preds = %.lr.ph.us.preheader, %._crit_edge.us
  %indvars.iv = phi i64 [ 0, %.lr.ph.us.preheader ], [ %indvars.iv.next, %._crit_edge.us ]
  %17 = getelementptr inbounds nuw ptr, ptr %2, i64 %indvars.iv
  %18 = load ptr, ptr %17, align 8, !tbaa !67
  %19 = load ptr, ptr %18, align 8, !tbaa !54
  %20 = getelementptr inbounds nuw i8, ptr %19, i64 16
  %21 = load ptr, ptr %20, align 8, !tbaa !61
  br label %22

22:                                               ; preds = %.lr.ph.us, %22
  %.01619.us = phi i64 [ 0, %.lr.ph.us ], [ %24, %22 ]
  %23 = getelementptr inbounds nuw double, ptr %21, i64 %.01619.us
  store double %1, ptr %23, align 8, !tbaa !64
  %24 = add nuw nsw i64 %.01619.us, 1
  %exitcond.not = icmp eq i64 %24, %7
  br i1 %exitcond.not, label %._crit_edge.us, label %22

._crit_edge.us:                                   ; preds = %22
  %indvars.iv.next = add nuw nsw i64 %indvars.iv, 1
  %exitcond26.not = icmp eq i64 %indvars.iv.next, %wide.trip.count
  br i1 %exitcond26.not, label %N_VConst_Serial.exit, label %.lr.ph.us

N_VConst_Serial.exit:                             ; preds = %._crit_edge.us, %.lr.ph.i, %14, %8
  ret i32 0
}